(dp0
S'testCases'
p1
(dp2
S'A4-part-1'
p3
(lp4
(dp5
S'window'
p6
S'boxcar'
p7
sS'M'
p8
I64
sa(dp9
g6
S'hamming'
p10
sg8
I101
sa(dp11
g6
S'blackmanharris'
p12
sg8
I71
sa(dp13
g6
g12
sg8
I32
sasS'A4-part-3'
p14
(lp15
(dp16
S'H'
p17
I128
sg6
S'blackman'
p18
sS'N'
p19
I1024
sg8
I513
sS'inputFile'
p20
S'../../sounds/piano.wav'
p21
sa(dp22
g17
I128
sg6
g18
sg19
I1024
sg8
I256
sg20
S'../../sounds/mridangam.wav'
p23
sa(dp24
g17
I128
sg6
g18
sg19
I1024
sg8
I513
sg20
g23
sasS'A4-part-2'
p25
(lp26
(dp27
g17
I128
sg6
g18
sg19
I1024
sg8
I513
sg20
S'../../sounds/ocean.wav'
p28
sa(dp29
g17
I128
sg6
S'hann'
p30
sg19
I1024
sg8
I513
sg20
S'../../sounds/rain.wav'
p31
sa(dp32
g17
I128
sg6
g10
sg19
I1024
sg8
I512
sg20
g31
sasS'A4-part-4'
p33
(lp34
(dp35
g17
I128
sg6
g18
sg19
I1024
sg8
I513
sg20
g21
sa(dp36
g17
I128
sg6
g18
sg19
I1024
sg8
I256
sg20
g23
sa(dp37
g17
I128
sg6
g18
sg19
I1024
sg8
I513
sg20
g23
sassS'outputType'
p38
(dp39
g3
(lp40
cnumpy
ndarray
p41
asg14
(lp42
g41
asg25
(lp43
c__builtin__
tuple
p44
asg33
(lp45
g41
ass.