(dp0
S'testCases'
p1
(dp2
S'A6-part-3'
p3
(lp4
(dp5
S'inputFile'
p6
S'../../sounds/piano.wav'
p7
sa(dp8
S'nH'
p9
I5
sg6
g7
sa(dp10
S'minf0'
p11
I230
sS't1'
p12
F2.3
sS't2'
p13
F2.8
sS'maxf0'
p14
I290
sg6
g7
sa(dp15
g9
I5
sg11
I230
sg13
F2.8
sg12
F2.3
sg14
I290
sg6
g7
sa(dp16
g9
I15
sg11
I230
sg13
F2.8
sg12
F2.3
sg14
I290
sg6
g7
sasS'A6-part-2'
p17
(lp18
(dp19
g6
S'../../sounds/sax-phrase-short.wav'
p20
sa(dp21
S'minNoteDur'
p22
F0.5
sS'stdThsld'
p23
I20
sg6
g20
sa(dp24
g22
F0.65
sg23
I30
sg6
g20
sasS'A6-part-1'
p25
(lp26
(dp27
g6
S'../../sounds/cello-double-2.wav'
p28
sassS'outputType'
p29
(dp30
g3
(lp31
c__builtin__
float
p32
asg17
(lp33
cnumpy
ndarray
p34
asg25
(lp35
g34
ass.